ccopy_reg
_reconstructor
p1
(cbinpacking
MainTask
p2
c__builtin__
object
p3
NtRp4
(dp5
S'condor_jobs'
p6
I10
sS'task_id'
p7
S'MainTask_10_SAMPLES_LIST_txt_8b8c07ad1b'
p8
sS'_Task__hash'
p9
I-2455749560138740038
sS'set_status_message'
p10
NsS'sample_list'
p11
S'SAMPLES_LIST.txt'
p12
sS'param_args'
p13
(g12
I10
tp14
sS'set_tracking_url'
p15
NsS'param_kwargs'
p16
(dp17
g6
I10
sg11
g12
ssb.